target datalayout = "e-m:e-p270:32:32-p271:32:32-p272:64:64-i64:64-i128:128-f80:128-n8:16:32:64-S128"
target triple = "x86_64-pc-linux-gnu"

; Function Attrs: nounwind uwtable
define internal void @vertical_compose_dd137iL0_12bit(ptr noundef %0, ptr noundef %1, ptr noundef %2, ptr noundef %3, ptr noundef %4, i32 noundef %5) #0 {
  %7 = alloca ptr, align 8
  %8 = alloca ptr, align 8
  %9 = alloca ptr, align 8
  %10 = alloca ptr, align 8
  %11 = alloca ptr, align 8
  %12 = alloca i32, align 4
  %13 = alloca i32, align 4
  %14 = alloca ptr, align 8
  %15 = alloca ptr, align 8
  %16 = alloca ptr, align 8
  %17 = alloca ptr, align 8
  %18 = alloca ptr, align 8
  store ptr %0, ptr %7, align 8, !tbaa !44
  store ptr %1, ptr %8, align 8, !tbaa !44
  store ptr %2, ptr %9, align 8, !tbaa !44
  store ptr %3, ptr %10, align 8, !tbaa !44
  store ptr %4, ptr %11, align 8, !tbaa !44
  store i32 %5, ptr %12, align 4, !tbaa !11
  call void @llvm.lifetime.start.p0(i64 4, ptr %13) #5
  call void @llvm.lifetime.start.p0(i64 8, ptr %14) #5
  %19 = load ptr, ptr %7, align 8, !tbaa !44
  store ptr %19, ptr %14, align 8, !tbaa !91
  call void @llvm.lifetime.start.p0(i64 8, ptr %15) #5
  %20 = load ptr, ptr %8, align 8, !tbaa !44
  store ptr %20, ptr %15, align 8, !tbaa !91
  call void @llvm.lifetime.start.p0(i64 8, ptr %16) #5
  %21 = load ptr, ptr %9, align 8, !tbaa !44
  store ptr %21, ptr %16, align 8, !tbaa !91
  call void @llvm.lifetime.start.p0(i64 8, ptr %17) #5
  %22 = load ptr, ptr %10, align 8, !tbaa !44
  store ptr %22, ptr %17, align 8, !tbaa !91
  call void @llvm.lifetime.start.p0(i64 8, ptr %18) #5
  %23 = load ptr, ptr %11, align 8, !tbaa !44
  store ptr %23, ptr %18, align 8, !tbaa !91
  store i32 0, ptr %13, align 4, !tbaa !11
  br label %24

24:                                               ; preds = %66, %6
  %25 = load i32, ptr %13, align 4, !tbaa !11
  %26 = load i32, ptr %12, align 4, !tbaa !11
  %27 = icmp slt i32 %25, %26
  br i1 %27, label %28, label %69

28:                                               ; preds = %24
  %29 = load ptr, ptr %16, align 8, !tbaa !91
  %30 = load i32, ptr %13, align 4, !tbaa !11
  %31 = sext i32 %30 to i64
  %32 = getelementptr inbounds i32, ptr %29, i64 %31
  %33 = load i32, ptr %32, align 4, !tbaa !11
  %34 = load ptr, ptr %15, align 8, !tbaa !91
  %35 = load i32, ptr %13, align 4, !tbaa !11
  %36 = sext i32 %35 to i64
  %37 = getelementptr inbounds i32, ptr %34, i64 %36
  %38 = load i32, ptr %37, align 4, !tbaa !11
  %39 = mul i32 9, %38
  %40 = load ptr, ptr %17, align 8, !tbaa !91
  %41 = load i32, ptr %13, align 4, !tbaa !11
  %42 = sext i32 %41 to i64
  %43 = getelementptr inbounds i32, ptr %40, i64 %42
  %44 = load i32, ptr %43, align 4, !tbaa !11
  %45 = mul i32 9, %44
  %46 = add i32 %39, %45
  %47 = load ptr, ptr %18, align 8, !tbaa !91
  %48 = load i32, ptr %13, align 4, !tbaa !11
  %49 = sext i32 %48 to i64
  %50 = getelementptr inbounds i32, ptr %47, i64 %49
  %51 = load i32, ptr %50, align 4, !tbaa !11
  %52 = sub i32 %46, %51
  %53 = load ptr, ptr %14, align 8, !tbaa !91
  %54 = load i32, ptr %13, align 4, !tbaa !11
  %55 = sext i32 %54 to i64
  %56 = getelementptr inbounds i32, ptr %53, i64 %55
  %57 = load i32, ptr %56, align 4, !tbaa !11
  %58 = sub i32 %52, %57
  %59 = add i32 %58, 16
  %60 = ashr i32 %59, 5
  %61 = sub i32 %33, %60
  %62 = load ptr, ptr %16, align 8, !tbaa !91
  %63 = load i32, ptr %13, align 4, !tbaa !11
  %64 = sext i32 %63 to i64
  %65 = getelementptr inbounds i32, ptr %62, i64 %64
  store i32 %61, ptr %65, align 4, !tbaa !11
  br label %66

66:                                               ; preds = %28
  %67 = load i32, ptr %13, align 4, !tbaa !11
  %68 = add nsw i32 %67, 1
  store i32 %68, ptr %13, align 4, !tbaa !11
  br label %24, !llvm.loop !136

69:                                               ; preds = %24
  call void @llvm.lifetime.end.p0(i64 8, ptr %18) #5
  call void @llvm.lifetime.end.p0(i64 8, ptr %17) #5
  call void @llvm.lifetime.end.p0(i64 8, ptr %16) #5
  call void @llvm.lifetime.end.p0(i64 8, ptr %15) #5
  call void @llvm.lifetime.end.p0(i64 8, ptr %14) #5
  call void @llvm.lifetime.end.p0(i64 4, ptr %13) #5
  ret void
}